Certificate:
    Data:
        Version: 3 (0x2)
        Serial Number:
            5a:f7:c6:a4:6c:cb:51:9a:00:c9:a0:e4:99:02:b0:c6
    Signature Algorithm: sha256WithRSAEncryption
        Issuer: CN=server
        Validity
            Not Before: May 11 20:16:29 2019 GMT
            Not After : Apr 25 20:16:29 2022 GMT
        Subject: CN=client
        Subject Public Key Info:
            Public Key Algorithm: rsaEncryption
                Public-Key: (2048 bit)
                Modulus:
                    00:c2:4e:6e:eb:8f:e5:e0:70:55:f1:b5:51:c8:5f:
                    43:58:4f:e0:be:b0:3a:f5:42:37:61:06:80:2b:94:
                    51:22:df:74:24:6e:da:b8:3d:f7:2c:dd:14:fc:4b:
                    fa:5e:1a:60:6c:4f:66:ab:ad:72:0c:a7:a5:8c:e6:
                    5c:f4:5d:45:38:47:8a:d8:be:a7:2e:29:59:58:39:
                    8a:08:e4:c1:9c:f4:93:af:65:d0:9c:b7:3c:9e:f8:
                    03:d7:9f:1a:81:39:ac:04:a3:f0:c3:5b:ee:fe:33:
                    af:4f:bb:4d:33:d6:76:d2:0f:0e:3f:0d:ae:3d:ad:
                    44:8e:9c:fd:6e:f0:f8:4a:50:42:e5:d6:96:91:6d:
                    95:d2:42:9e:a1:c9:f9:7d:61:1c:e3:d4:0b:74:e5:
                    97:e7:23:8c:ad:9b:95:45:70:ed:93:52:10:99:11:
                    3b:39:ef:8b:c5:71:7d:50:fa:6b:7e:af:8b:ce:2c:
                    b7:38:ef:ad:c1:cd:0b:05:cd:1b:88:91:c1:8e:c4:
                    77:33:21:06:e4:56:e0:2d:a8:5a:9a:d5:26:e6:8d:
                    26:da:d5:ee:8a:3c:8b:0b:e4:6b:f0:44:02:91:61:
                    ac:57:42:c7:88:e2:03:b3:34:25:88:5c:9a:4b:43:
                    6f:b6:c0:ec:ca:53:c1:81:f1:59:5e:54:71:8a:0d:
                    be:4f
                Exponent: 65537 (0x10001)
        X509v3 extensions:
            X509v3 Basic Constraints: 
                CA:FALSE
            X509v3 Subject Key Identifier: 
                4E:CE:F5:D1:BA:1F:79:AB:C1:74:72:7C:52:3B:61:18:0C:D2:2C:7E
            X509v3 Authority Key Identifier: 
                keyid:BB:E6:31:31:5F:5C:19:E7:12:F9:AB:A9:07:28:C6:15:FB:FE:C1:28
                DirName:/CN=server
                serial:B6:E1:58:3A:D2:6D:5A:FC

            X509v3 Extended Key Usage: 
                TLS Web Client Authentication
            X509v3 Key Usage: 
                Digital Signature
    Signature Algorithm: sha256WithRSAEncryption
         22:ec:cc:c4:57:63:44:74:76:f9:c9:a6:45:0a:39:5d:9f:1f:
         57:52:d7:2b:08:82:35:15:1e:29:8c:0e:dd:10:53:03:47:8e:
         57:d7:a7:b0:47:8e:72:72:43:68:a8:99:30:10:78:d7:b5:78:
         f4:4a:6c:d9:08:4c:e3:a9:4a:f7:a0:69:83:99:31:6d:56:bc:
         5b:af:61:27:80:60:56:55:e7:03:31:74:a9:bd:c0:35:e2:fd:
         a3:99:c3:93:54:b6:ab:65:12:b9:c2:a5:f1:7e:21:08:05:15:
         6c:9a:54:91:d5:2d:c5:9d:29:88:23:84:67:0b:0a:b2:a1:0d:
         cc:fb:f1:e3:09:e5:5b:a5:2e:4d:d8:a2:9c:9c:2e:06:23:bd:
         54:4a:d6:f5:ba:75:eb:9d:b0:be:5b:65:6b:e9:5a:5d:e4:e8:
         aa:06:ec:a0:20:06:22:c9:7b:dd:b4:a8:27:e0:03:71:33:5d:
         00:59:26:73:60:2f:0c:07:94:f6:c8:31:3c:f0:f7:f6:61:0c:
         86:fa:c3:98:92:61:cb:39:25:88:27:75:7c:cd:db:5e:9d:25:
         49:b4:b6:a2:73:5e:fa:04:3d:e8:91:13:fb:a7:42:80:99:13:
         d4:20:09:45:19:72:43:84:70:5d:27:d5:2c:b9:a1:07:e6:6c:
         d1:a4:ed:50
-----BEGIN CERTIFICATE-----
MIIDPzCCAiegAwIBAgIQWvfGpGzLUZoAyaDkmQKwxjANBgkqhkiG9w0BAQsFADAR
MQ8wDQYDVQQDDAZzZXJ2ZXIwHhcNMTkwNTExMjAxNjI5WhcNMjIwNDI1MjAxNjI5
WjARMQ8wDQYDVQQDDAZjbGllbnQwggEiMA0GCSqGSIb3DQEBAQUAA4IBDwAwggEK
AoIBAQDCTm7rj+XgcFXxtVHIX0NYT+C+sDr1QjdhBoArlFEi33Qkbtq4Pfcs3RT8
S/peGmBsT2arrXIMp6WM5lz0XUU4R4rYvqcuKVlYOYoI5MGc9JOvZdCctzye+APX
nxqBOawEo/DDW+7+M69Pu00z1nbSDw4/Da49rUSOnP1u8PhKUELl1paRbZXSQp6h
yfl9YRzj1At05ZfnI4ytm5VFcO2TUhCZETs574vFcX1Q+mt+r4vOLLc4763BzQsF
zRuIkcGOxHczIQbkVuAtqFqa1SbmjSba1e6KPIsL5GvwRAKRYaxXQseI4gOzNCWI
XJpLQ2+2wOzKU8GB8VleVHGKDb5PAgMBAAGjgZIwgY8wCQYDVR0TBAIwADAdBgNV
HQ4EFgQUTs710bofeavBdHJ8UjthGAzSLH4wQQYDVR0jBDowOIAUu+YxMV9cGecS
+aupByjGFfv+wSihFaQTMBExDzANBgNVBAMMBnNlcnZlcoIJALbhWDrSbVr8MBMG
A1UdJQQMMAoGCCsGAQUFBwMCMAsGA1UdDwQEAwIHgDANBgkqhkiG9w0BAQsFAAOC
AQEAIuzMxFdjRHR2+cmmRQo5XZ8fV1LXKwiCNRUeKYwO3RBTA0eOV9ensEeOcnJD
aKiZMBB417V49Eps2QhM46lK96Bpg5kxbVa8W69hJ4BgVlXnAzF0qb3ANeL9o5nD
k1S2q2USucKl8X4hCAUVbJpUkdUtxZ0piCOEZwsKsqENzPvx4wnlW6UuTdiinJwu
BiO9VErW9bp1652wvltla+laXeToqgbsoCAGIsl73bSoJ+ADcTNdAFkmc2AvDAeU
9sgxPPD39mEMhvrDmJJhyzkliCd1fM3bXp0lSbS2onNe+gQ96JET+6dCgJkT1CAJ
RRlyQ4RwXSfVLLmhB+Zs0aTtUA==
-----END CERTIFICATE-----
